target datalayout = "e-m:e-p270:32:32-p271:32:32-p272:64:64-i64:64-i128:128-f80:128-n8:16:32:64-S128"
target triple = "x86_64-pc-linux-gnu"

%struct._zend_refcounted_h = type { i32, %union.anon }
%union.anon = type { i32 }
%struct._zval_struct = type { %union._zend_value, %union.anon.0, %union.anon.3 }
%union._zend_value = type { i64 }
%union.anon.0 = type { i32 }
%union.anon.3 = type { i32 }
%struct._zend_generator = type { %struct._zend_object, ptr, ptr, %struct._zval_struct, %struct._zval_struct, %struct._zval_struct, ptr, i64, %struct._zval_struct, %struct._zend_generator_node, %struct._zend_execute_data, ptr, i8 }
%struct._zend_object = type { %struct._zend_refcounted_h, i32, i32, ptr, ptr, ptr, [1 x %struct._zval_struct] }
%struct._zend_generator_node = type { ptr, i32, %union.anon.4, %union.anon.5 }
%union.anon.4 = type { ptr }
%union.anon.5 = type { ptr }
%struct._zend_execute_data = type { ptr, ptr, ptr, ptr, %struct._zval_struct, ptr, ptr, ptr, ptr }

; Function Attrs: alwaysinline nounwind uwtable
define internal ptr @zend_hash_index_add_new_ptr(ptr noundef %0, i64 noundef %1, ptr noundef %2) #2 {
  %4 = alloca ptr, align 8
  %5 = alloca i64, align 8
  %6 = alloca ptr, align 8
  %7 = alloca %struct._zval_struct, align 8
  %8 = alloca ptr, align 8
  store ptr %0, ptr %4, align 8, !tbaa !72
  store i64 %1, ptr %5, align 8, !tbaa !35
  store ptr %2, ptr %6, align 8, !tbaa !34
  call void @llvm.lifetime.start.p0(i64 16, ptr %7) #11
  call void @llvm.lifetime.start.p0(i64 8, ptr %8) #11
  br label %9

9:                                                ; preds = %3
  %10 = load ptr, ptr %6, align 8, !tbaa !34
  %11 = getelementptr inbounds nuw %struct._zval_struct, ptr %7, i32 0, i32 0
  store ptr %10, ptr %11, align 8, !tbaa !26
  %12 = getelementptr inbounds nuw %struct._zval_struct, ptr %7, i32 0, i32 1
  store i32 13, ptr %12, align 8, !tbaa !26
  br label %13

13:                                               ; preds = %9
  br label %14

14:                                               ; preds = %13
  %15 = load ptr, ptr %4, align 8, !tbaa !72
  %16 = load i64, ptr %5, align 8, !tbaa !35
  %17 = call ptr @zend_hash_index_add_new(ptr noundef %15, i64 noundef %16, ptr noundef %7)
  store ptr %17, ptr %8, align 8, !tbaa !36
  %18 = load ptr, ptr %8, align 8, !tbaa !36
  %19 = icmp ne ptr %18, null
  br i1 %19, label %20, label %24

20:                                               ; preds = %14
  %21 = load ptr, ptr %8, align 8, !tbaa !36
  %22 = getelementptr inbounds nuw %struct._zval_struct, ptr %21, i32 0, i32 0
  %23 = load ptr, ptr %22, align 8, !tbaa !26
  br label %25

24:                                               ; preds = %14
  br label %25

25:                                               ; preds = %24, %20
  %26 = phi ptr [ %23, %20 ], [ null, %24 ]
  call void @llvm.lifetime.end.p0(i64 8, ptr %8) #11
  call void @llvm.lifetime.end.p0(i64 16, ptr %7) #11
  ret ptr %26
}

; Function Attrs: nounwind uwtable
define internal void @zend_generator_add_child(ptr noundef %0, ptr noundef %1) #0 {
  %3 = alloca ptr, align 8
  %4 = alloca ptr, align 8
  %5 = alloca ptr, align 8
  %6 = alloca ptr, align 8
  store ptr %0, ptr %3, align 8, !tbaa !4
  store ptr %1, ptr %4, align 8, !tbaa !4
  call void @llvm.lifetime.start.p0(i64 8, ptr %5) #11
  %7 = load ptr, ptr %3, align 8, !tbaa !4
  %8 = getelementptr inbounds nuw %struct._zend_generator, ptr %7, i32 0, i32 9
  store ptr %8, ptr %5, align 8, !tbaa !82
  %9 = load ptr, ptr %5, align 8, !tbaa !82
  %10 = getelementptr inbounds nuw %struct._zend_generator_node, ptr %9, i32 0, i32 1
  %11 = load i32, ptr %10, align 8, !tbaa !84
  %12 = icmp eq i32 %11, 0
  br i1 %12, label %13, label %17

13:                                               ; preds = %2
  %14 = load ptr, ptr %4, align 8, !tbaa !4
  %15 = load ptr, ptr %5, align 8, !tbaa !82
  %16 = getelementptr inbounds nuw %struct._zend_generator_node, ptr %15, i32 0, i32 2
  store ptr %14, ptr %16, align 8, !tbaa !26
  br label %45

17:                                               ; preds = %2
  %18 = load ptr, ptr %5, align 8, !tbaa !82
  %19 = getelementptr inbounds nuw %struct._zend_generator_node, ptr %18, i32 0, i32 1
  %20 = load i32, ptr %19, align 8, !tbaa !84
  %21 = icmp eq i32 %20, 1
  br i1 %21, label %22, label %37

22:                                               ; preds = %17
  call void @llvm.lifetime.start.p0(i64 8, ptr %6) #11
  %23 = call noalias ptr @_emalloc_56()
  store ptr %23, ptr %6, align 8, !tbaa !72
  %24 = load ptr, ptr %6, align 8, !tbaa !72
  call void @_zend_hash_init(ptr noundef %24, i32 noundef 0, ptr noundef null, i1 noundef zeroext false)
  %25 = load ptr, ptr %6, align 8, !tbaa !72
  %26 = load ptr, ptr %5, align 8, !tbaa !82
  %27 = getelementptr inbounds nuw %struct._zend_generator_node, ptr %26, i32 0, i32 2
  %28 = load ptr, ptr %27, align 8, !tbaa !26
  %29 = ptrtoint ptr %28 to i64
  %30 = load ptr, ptr %5, align 8, !tbaa !82
  %31 = getelementptr inbounds nuw %struct._zend_generator_node, ptr %30, i32 0, i32 2
  %32 = load ptr, ptr %31, align 8, !tbaa !26
  %33 = call ptr @zend_hash_index_add_new_ptr(ptr noundef %25, i64 noundef %29, ptr noundef %32)
  %34 = load ptr, ptr %6, align 8, !tbaa !72
  %35 = load ptr, ptr %5, align 8, !tbaa !82
  %36 = getelementptr inbounds nuw %struct._zend_generator_node, ptr %35, i32 0, i32 2
  store ptr %34, ptr %36, align 8, !tbaa !26
  call void @llvm.lifetime.end.p0(i64 8, ptr %6) #11
  br label %37

37:                                               ; preds = %22, %17
  %38 = load ptr, ptr %5, align 8, !tbaa !82
  %39 = getelementptr inbounds nuw %struct._zend_generator_node, ptr %38, i32 0, i32 2
  %40 = load ptr, ptr %39, align 8, !tbaa !26
  %41 = load ptr, ptr %4, align 8, !tbaa !4
  %42 = ptrtoint ptr %41 to i64
  %43 = load ptr, ptr %4, align 8, !tbaa !4
  %44 = call ptr @zend_hash_index_add_new_ptr(ptr noundef %40, i64 noundef %42, ptr noundef %43)
  br label %45

45:                                               ; preds = %37, %13
  %46 = load ptr, ptr %5, align 8, !tbaa !82
  %47 = getelementptr inbounds nuw %struct._zend_generator_node, ptr %46, i32 0, i32 1
  %48 = load i32, ptr %47, align 8, !tbaa !84
  %49 = add i32 %48, 1
  store i32 %49, ptr %47, align 8, !tbaa !84
  call void @llvm.lifetime.end.p0(i64 8, ptr %5) #11
  ret void
}

; Function Attrs: alwaysinline nounwind uwtable
define internal ptr @clear_link_to_leaf(ptr noundef %0) #2 {
  %2 = alloca ptr, align 8
  %3 = alloca ptr, align 8
  %4 = alloca ptr, align 8
  %5 = alloca i32, align 4
  store ptr %0, ptr %3, align 8, !tbaa !4
  %6 = load ptr, ptr %3, align 8, !tbaa !4
  %7 = getelementptr inbounds nuw %struct._zend_generator, ptr %6, i32 0, i32 9
  %8 = getelementptr inbounds nuw %struct._zend_generator_node, ptr %7, i32 0, i32 0
  %9 = load ptr, ptr %8, align 8, !tbaa !73
  %10 = icmp ne ptr %9, null
  %11 = xor i1 %10, true
  call void @llvm.assume(i1 %11)
  call void @llvm.lifetime.start.p0(i64 8, ptr %4) #11
  %12 = load ptr, ptr %3, align 8, !tbaa !4
  %13 = getelementptr inbounds nuw %struct._zend_generator, ptr %12, i32 0, i32 9
  %14 = getelementptr inbounds nuw %struct._zend_generator_node, ptr %13, i32 0, i32 3
  %15 = load ptr, ptr %14, align 8, !tbaa !26
  store ptr %15, ptr %4, align 8, !tbaa !4
  %16 = load ptr, ptr %4, align 8, !tbaa !4
  %17 = icmp ne ptr %16, null
  br i1 %17, label %18, label %26

18:                                               ; preds = %1
  %19 = load ptr, ptr %4, align 8, !tbaa !4
  %20 = getelementptr inbounds nuw %struct._zend_generator, ptr %19, i32 0, i32 9
  %21 = getelementptr inbounds nuw %struct._zend_generator_node, ptr %20, i32 0, i32 3
  store ptr null, ptr %21, align 8, !tbaa !26
  %22 = load ptr, ptr %3, align 8, !tbaa !4
  %23 = getelementptr inbounds nuw %struct._zend_generator, ptr %22, i32 0, i32 9
  %24 = getelementptr inbounds nuw %struct._zend_generator_node, ptr %23, i32 0, i32 3
  store ptr null, ptr %24, align 8, !tbaa !26
  %25 = load ptr, ptr %4, align 8, !tbaa !4
  store ptr %25, ptr %2, align 8
  store i32 1, ptr %5, align 4
  br label %27

26:                                               ; preds = %1
  store ptr null, ptr %2, align 8
  store i32 1, ptr %5, align 4
  br label %27

27:                                               ; preds = %26, %18
  call void @llvm.lifetime.end.p0(i64 8, ptr %4) #11
  %28 = load ptr, ptr %2, align 8
  ret ptr %28
}

; Function Attrs: nounwind uwtable
define hidden void @zend_generator_yield_from(ptr noundef %0, ptr noundef %1) #0 {
  %3 = alloca ptr, align 8
  %4 = alloca ptr, align 8
  %5 = alloca ptr, align 8
  store ptr %0, ptr %3, align 8, !tbaa !4
  store ptr %1, ptr %4, align 8, !tbaa !4
  %6 = load ptr, ptr %3, align 8, !tbaa !4
  %7 = getelementptr inbounds nuw %struct._zend_generator, ptr %6, i32 0, i32 9
  %8 = getelementptr inbounds nuw %struct._zend_generator_node, ptr %7, i32 0, i32 0
  %9 = load ptr, ptr %8, align 8, !tbaa !73
  %10 = icmp ne ptr %9, null
  br i1 %10, label %12, label %11

11:                                               ; preds = %2
  br label %12

12:                                               ; preds = %11, %2
  %13 = phi i1 [ false, %2 ], [ true, %11 ]
  call void @llvm.assume(i1 %13)
  call void @llvm.lifetime.start.p0(i64 8, ptr %5) #11
  %14 = load ptr, ptr %3, align 8, !tbaa !4
  %15 = call ptr @clear_link_to_leaf(ptr noundef %14)
  store ptr %15, ptr %5, align 8, !tbaa !4
  %16 = load ptr, ptr %5, align 8, !tbaa !4
  %17 = icmp ne ptr %16, null
  br i1 %17, label %18, label %39

18:                                               ; preds = %12
  %19 = load ptr, ptr %4, align 8, !tbaa !4
  %20 = getelementptr inbounds nuw %struct._zend_generator, ptr %19, i32 0, i32 9
  %21 = getelementptr inbounds nuw %struct._zend_generator_node, ptr %20, i32 0, i32 0
  %22 = load ptr, ptr %21, align 8, !tbaa !73
  %23 = icmp ne ptr %22, null
  br i1 %23, label %39, label %24

24:                                               ; preds = %18
  %25 = load ptr, ptr %4, align 8, !tbaa !4
  %26 = getelementptr inbounds nuw %struct._zend_generator, ptr %25, i32 0, i32 9
  %27 = getelementptr inbounds nuw %struct._zend_generator_node, ptr %26, i32 0, i32 3
  %28 = load ptr, ptr %27, align 8, !tbaa !26
  %29 = icmp ne ptr %28, null
  br i1 %29, label %39, label %30

30:                                               ; preds = %24
  %31 = load ptr, ptr %5, align 8, !tbaa !4
  %32 = load ptr, ptr %4, align 8, !tbaa !4
  %33 = getelementptr inbounds nuw %struct._zend_generator, ptr %32, i32 0, i32 9
  %34 = getelementptr inbounds nuw %struct._zend_generator_node, ptr %33, i32 0, i32 3
  store ptr %31, ptr %34, align 8, !tbaa !26
  %35 = load ptr, ptr %4, align 8, !tbaa !4
  %36 = load ptr, ptr %5, align 8, !tbaa !4
  %37 = getelementptr inbounds nuw %struct._zend_generator, ptr %36, i32 0, i32 9
  %38 = getelementptr inbounds nuw %struct._zend_generator_node, ptr %37, i32 0, i32 3
  store ptr %35, ptr %38, align 8, !tbaa !26
  br label %39

39:                                               ; preds = %30, %24, %18, %12
  %40 = load ptr, ptr %4, align 8, !tbaa !4
  %41 = load ptr, ptr %3, align 8, !tbaa !4
  %42 = getelementptr inbounds nuw %struct._zend_generator, ptr %41, i32 0, i32 9
  %43 = getelementptr inbounds nuw %struct._zend_generator_node, ptr %42, i32 0, i32 0
  store ptr %40, ptr %43, align 8, !tbaa !73
  %44 = load ptr, ptr %4, align 8, !tbaa !4
  %45 = load ptr, ptr %3, align 8, !tbaa !4
  call void @zend_generator_add_child(ptr noundef %44, ptr noundef %45)
  %46 = load ptr, ptr %3, align 8, !tbaa !4
  %47 = getelementptr inbounds nuw %struct._zend_generator, ptr %46, i32 0, i32 12
  %48 = load i8, ptr %47, align 8, !tbaa !81
  %49 = zext i8 %48 to i32
  %50 = or i32 %49, 8
  %51 = trunc i32 %50 to i8
  store i8 %51, ptr %47, align 8, !tbaa !81
  call void @llvm.lifetime.end.p0(i64 8, ptr %5) #11
  ret void
}