; Function Attrs: nounwind uwtable
define hidden void @zend_generator_yield_from(ptr noundef %0, ptr noundef %1) local_unnamed_addr #0 {
  %3 = alloca %struct._zval_struct, align 8
  %4 = alloca %struct._zval_struct, align 8
  %5 = getelementptr inbounds nuw i8, ptr %0, i64 152
  %6 = load ptr, ptr %5, align 8, !tbaa !94
  %.not = icmp eq ptr %6, null
  tail call void @llvm.assume(i1 %.not)
  %7 = getelementptr inbounds nuw i8, ptr %0, i64 176
  %8 = load ptr, ptr %7, align 8, !tbaa !24
  %.not8.i = icmp eq ptr %8, null
  br i1 %.not8.i, label %clear_link_to_leaf.exit.thread, label %9

9:                                                ; preds = %2
  %10 = getelementptr inbounds nuw i8, ptr %8, i64 176
  store ptr null, ptr %10, align 8, !tbaa !24
  store ptr null, ptr %7, align 8, !tbaa !24
  %11 = getelementptr inbounds nuw i8, ptr %1, i64 152
  %12 = load ptr, ptr %11, align 8, !tbaa !94
  %.not15 = icmp eq ptr %12, null
  br i1 %.not15, label %13, label %clear_link_to_leaf.exit.thread

13:                                               ; preds = %9
  %14 = getelementptr inbounds nuw i8, ptr %1, i64 176
  %15 = load ptr, ptr %14, align 8, !tbaa !24
  %.not16 = icmp eq ptr %15, null
  br i1 %.not16, label %16, label %clear_link_to_leaf.exit.thread

16:                                               ; preds = %13
  store ptr %8, ptr %14, align 8, !tbaa !24
  store ptr %1, ptr %10, align 8, !tbaa !24
  br label %clear_link_to_leaf.exit.thread

clear_link_to_leaf.exit.thread:                   ; preds = %2, %16, %13, %9
  store ptr %1, ptr %5, align 8, !tbaa !94
  %17 = getelementptr inbounds nuw i8, ptr %1, i64 160
  %18 = load i32, ptr %17, align 8, !tbaa !98
  switch i32 %18, label %.zend_hash_index_add_new_ptr.exit16_crit_edge.i [
    i32 0, label %19
    i32 1, label %zend_hash_index_add_new_ptr.exit.i
  ]

.zend_hash_index_add_new_ptr.exit16_crit_edge.i:  ; preds = %clear_link_to_leaf.exit.thread
  %.phi.trans.insert.i = getelementptr inbounds nuw i8, ptr %1, i64 168
  %.pre.i = load ptr, ptr %.phi.trans.insert.i, align 8, !tbaa !24
  br label %zend_hash_index_add_new_ptr.exit16.i

19:                                               ; preds = %clear_link_to_leaf.exit.thread
  %20 = getelementptr inbounds nuw i8, ptr %1, i64 168
  store ptr %0, ptr %20, align 8, !tbaa !24
  br label %zend_generator_add_child.exit

zend_hash_index_add_new_ptr.exit.i:               ; preds = %clear_link_to_leaf.exit.thread
  %21 = tail call noalias ptr @_emalloc_56() #11
  tail call void @_zend_hash_init(ptr noundef %21, i32 noundef 0, ptr noundef null, i1 noundef zeroext false) #11
  %22 = getelementptr inbounds nuw i8, ptr %1, i64 168
  %23 = load ptr, ptr %22, align 8, !tbaa !24
  %24 = ptrtoint ptr %23 to i64
  call void @llvm.lifetime.start.p0(i64 16, ptr nonnull %4) #11
  store ptr %23, ptr %4, align 8, !tbaa !24
  %25 = getelementptr inbounds nuw i8, ptr %4, i64 8
  store i32 13, ptr %25, align 8, !tbaa !24
  %26 = call ptr @zend_hash_index_add_new(ptr noundef %21, i64 noundef %24, ptr noundef nonnull %4) #11
  call void @llvm.lifetime.end.p0(i64 16, ptr nonnull %4) #11
  store ptr %21, ptr %22, align 8, !tbaa !24
  br label %zend_hash_index_add_new_ptr.exit16.i

zend_hash_index_add_new_ptr.exit16.i:             ; preds = %zend_hash_index_add_new_ptr.exit.i, %.zend_hash_index_add_new_ptr.exit16_crit_edge.i
  %27 = phi ptr [ %.pre.i, %.zend_hash_index_add_new_ptr.exit16_crit_edge.i ], [ %21, %zend_hash_index_add_new_ptr.exit.i ]
  %28 = ptrtoint ptr %0 to i64
  call void @llvm.lifetime.start.p0(i64 16, ptr nonnull %3) #11
  store ptr %0, ptr %3, align 8, !tbaa !24
  %29 = getelementptr inbounds nuw i8, ptr %3, i64 8
  store i32 13, ptr %29, align 8, !tbaa !24
  %30 = call ptr @zend_hash_index_add_new(ptr noundef %27, i64 noundef %28, ptr noundef nonnull %3) #11
  call void @llvm.lifetime.end.p0(i64 16, ptr nonnull %3) #11
  %.pre17.i = load i32, ptr %17, align 8, !tbaa !98
  %31 = add i32 %.pre17.i, 1
  br label %zend_generator_add_child.exit

zend_generator_add_child.exit:                    ; preds = %19, %zend_hash_index_add_new_ptr.exit16.i
  %32 = phi i32 [ %31, %zend_hash_index_add_new_ptr.exit16.i ], [ 1, %19 ]
  store i32 %32, ptr %17, align 8, !tbaa !98
  %33 = getelementptr inbounds nuw i8, ptr %0, i64 272
  %34 = load i8, ptr %33, align 8, !tbaa !99
  %35 = or i8 %34, 8
  store i8 %35, ptr %33, align 8, !tbaa !99
  ret void
}